target datalayout = "e-m:e-p270:32:32-p271:32:32-p272:64:64-i64:64-i128:128-f80:128-n8:16:32:64-S128"
target triple = "x86_64-pc-linux-gnu"

%struct.OSQPVectorf_ = type { ptr, i64 }

; Function Attrs: nounwind uwtable
define void @OSQPVectorf_add_scaled(ptr noundef %0, double noundef %1, ptr noundef %2, double noundef %3, ptr noundef %4) #0 {
  %6 = alloca ptr, align 8
  %7 = alloca double, align 8
  %8 = alloca ptr, align 8
  %9 = alloca double, align 8
  %10 = alloca ptr, align 8
  %11 = alloca i64, align 8
  %12 = alloca i64, align 8
  %13 = alloca ptr, align 8
  %14 = alloca ptr, align 8
  %15 = alloca ptr, align 8
  store ptr %0, ptr %6, align 8
  store double %1, ptr %7, align 8
  store ptr %2, ptr %8, align 8
  store double %3, ptr %9, align 8
  store ptr %4, ptr %10, align 8
  %16 = load ptr, ptr %6, align 8
  %17 = getelementptr inbounds %struct.OSQPVectorf_, ptr %16, i32 0, i32 1
  %18 = load i64, ptr %17, align 8
  store i64 %18, ptr %12, align 8
  %19 = load ptr, ptr %8, align 8
  %20 = getelementptr inbounds %struct.OSQPVectorf_, ptr %19, i32 0, i32 0
  %21 = load ptr, ptr %20, align 8
  store ptr %21, ptr %13, align 8
  %22 = load ptr, ptr %10, align 8
  %23 = getelementptr inbounds %struct.OSQPVectorf_, ptr %22, i32 0, i32 0
  %24 = load ptr, ptr %23, align 8
  store ptr %24, ptr %14, align 8
  %25 = load ptr, ptr %6, align 8
  %26 = getelementptr inbounds %struct.OSQPVectorf_, ptr %25, i32 0, i32 0
  %27 = load ptr, ptr %26, align 8
  store ptr %27, ptr %15, align 8
  %28 = load ptr, ptr %6, align 8
  %29 = load ptr, ptr %8, align 8
  %30 = icmp eq ptr %28, %29
  br i1 %30, label %31, label %54

31:                                               ; preds = %5
  %32 = load double, ptr %7, align 8
  %33 = fcmp oeq double %32, 1.000000e+00
  br i1 %33, label %34, label %54

34:                                               ; preds = %31
  store i64 0, ptr %11, align 8
  br label %35

35:                                               ; preds = %50, %34
  %36 = load i64, ptr %11, align 8
  %37 = load i64, ptr %12, align 8
  %38 = icmp slt i64 %36, %37
  br i1 %38, label %39, label %53

39:                                               ; preds = %35
  %40 = load double, ptr %9, align 8
  %41 = load ptr, ptr %14, align 8
  %42 = load i64, ptr %11, align 8
  %43 = getelementptr inbounds double, ptr %41, i64 %42
  %44 = load double, ptr %43, align 8
  %45 = load ptr, ptr %15, align 8
  %46 = load i64, ptr %11, align 8
  %47 = getelementptr inbounds double, ptr %45, i64 %46
  %48 = load double, ptr %47, align 8
  %49 = call double @llvm.fmuladd.f64(double %40, double %44, double %48)
  store double %49, ptr %47, align 8
  br label %50

50:                                               ; preds = %39
  %51 = load i64, ptr %11, align 8
  %52 = add nsw i64 %51, 1
  store i64 %52, ptr %11, align 8
  br label %35, !llvm.loop !24

53:                                               ; preds = %35
  br label %79

54:                                               ; preds = %31, %5
  store i64 0, ptr %11, align 8
  br label %55

55:                                               ; preds = %75, %54
  %56 = load i64, ptr %11, align 8
  %57 = load i64, ptr %12, align 8
  %58 = icmp slt i64 %56, %57
  br i1 %58, label %59, label %78

59:                                               ; preds = %55
  %60 = load double, ptr %7, align 8
  %61 = load ptr, ptr %13, align 8
  %62 = load i64, ptr %11, align 8
  %63 = getelementptr inbounds double, ptr %61, i64 %62
  %64 = load double, ptr %63, align 8
  %65 = load double, ptr %9, align 8
  %66 = load ptr, ptr %14, align 8
  %67 = load i64, ptr %11, align 8
  %68 = getelementptr inbounds double, ptr %66, i64 %67
  %69 = load double, ptr %68, align 8
  %70 = fmul double %65, %69
  %71 = call double @llvm.fmuladd.f64(double %60, double %64, double %70)
  %72 = load ptr, ptr %15, align 8
  %73 = load i64, ptr %11, align 8
  %74 = getelementptr inbounds double, ptr %72, i64 %73
  store double %71, ptr %74, align 8
  br label %75

75:                                               ; preds = %59
  %76 = load i64, ptr %11, align 8
  %77 = add nsw i64 %76, 1
  store i64 %77, ptr %11, align 8
  br label %55, !llvm.loop !25

78:                                               ; preds = %55
  br label %79

79:                                               ; preds = %78, %53
  ret void
}