; Function Attrs: nofree norecurse nosync nounwind memory(readwrite, inaccessiblemem: none) uwtable
define void @OSQPVectorf_add_scaled(ptr noundef readonly %0, double noundef %1, ptr noundef readonly %2, double noundef %3, ptr nocapture noundef readonly %4) local_unnamed_addr #7 {
  %6 = getelementptr inbounds i8, ptr %0, i64 8
  %7 = load i64, ptr %6, align 8
  %8 = load ptr, ptr %2, align 8
  %9 = load ptr, ptr %4, align 8
  %10 = load ptr, ptr %0, align 8
  %11 = icmp eq ptr %0, %2
  %12 = fcmp oeq double %1, 1.000000e+00
  %or.cond = and i1 %12, %11
  %13 = icmp sgt i64 %7, 0
  br i1 %or.cond, label %.preheader, label %.preheader26

.preheader26:                                     ; preds = %5
  br i1 %13, label %.lr.ph, label %.loopexit

.preheader:                                       ; preds = %5
  br i1 %13, label %.lr.ph30, label %.loopexit

.lr.ph30:                                         ; preds = %.preheader, %.lr.ph30
  %.029 = phi i64 [ %19, %.lr.ph30 ], [ 0, %.preheader ]
  %14 = getelementptr inbounds double, ptr %9, i64 %.029
  %15 = load double, ptr %14, align 8
  %16 = getelementptr inbounds double, ptr %10, i64 %.029
  %17 = load double, ptr %16, align 8
  %18 = tail call double @llvm.fmuladd.f64(double %3, double %15, double %17)
  store double %18, ptr %16, align 8
  %19 = add nuw nsw i64 %.029, 1
  %exitcond32.not = icmp eq i64 %19, %7
  br i1 %exitcond32.not, label %.loopexit, label %.lr.ph30, !llvm.loop !24

.lr.ph:                                           ; preds = %.preheader26, %.lr.ph
  %.128 = phi i64 [ %27, %.lr.ph ], [ 0, %.preheader26 ]
  %20 = getelementptr inbounds double, ptr %8, i64 %.128
  %21 = load double, ptr %20, align 8
  %22 = getelementptr inbounds double, ptr %9, i64 %.128
  %23 = load double, ptr %22, align 8
  %24 = fmul double %23, %3
  %25 = tail call double @llvm.fmuladd.f64(double %1, double %21, double %24)
  %26 = getelementptr inbounds double, ptr %10, i64 %.128
  store double %25, ptr %26, align 8
  %27 = add nuw nsw i64 %.128, 1
  %exitcond.not = icmp eq i64 %27, %7
  br i1 %exitcond.not, label %.loopexit, label %.lr.ph, !llvm.loop !25

.loopexit:                                        ; preds = %.lr.ph, %.lr.ph30, %.preheader26, %.preheader
  ret void
}